; ModuleID = '54/337.c'
source_filename = "54/337.c"
target datalayout = "e-m:e-p270:32:32-p271:32:32-p272:64:64-i64:64-f80:128-n8:16:32:64-S128"
target triple = "x86_64-pc-linux-gnu"

@.str = private unnamed_addr constant [5 x i8] c"%d%d\00", align 1
@.str.1 = private unnamed_addr constant [3 x i8] c"%d\00", align 1

; Function Attrs: noinline nounwind uwtable
define dso_local i32 @main() #0 {
  %1 = alloca i32, align 4
  %2 = alloca i32, align 4
  %3 = alloca i32, align 4
  %4 = alloca i32, align 4
  %5 = alloca i32, align 4
  %6 = alloca i32, align 4
  store i32 0, i32* %1, align 4
  %7 = call i32 (i8*, ...) @__isoc99_scanf(i8* getelementptr inbounds ([5 x i8], [5 x i8]* @.str, i64 0, i64 0), i32* %2, i32* %4)
  %8 = load i32, i32* %2, align 4
  store i32 %8, i32* %6, align 4
  %9 = load i32, i32* %2, align 4
  %10 = icmp eq i32 %9, 2
  br i1 %10, label %11, label %16

11:                                               ; preds = %0
  %12 = load i32, i32* %4, align 4
  %13 = sub i32 8, %12
  store i32 %13, i32* %5, align 4
  %14 = load i32, i32* %5, align 4
  %15 = call i32 (i8*, ...) @printf(i8* getelementptr inbounds ([3 x i8], [3 x i8]* @.str.1, i64 0, i64 0), i32 %14)
  br label %31

16:                                               ; preds = %0
  %17 = load i32, i32* %2, align 4
  %18 = uitofp i32 %17 to double
  %19 = load i32, i32* %2, align 4
  %20 = uitofp i32 %19 to double
  %21 = call double @pow(double %18, double %20) #3
  %22 = fptoui double %21 to i32
  store i32 %22, i32* %2, align 4
  %23 = load i32, i32* %2, align 4
  %24 = load i32, i32* %6, align 4
  %25 = sub i32 %24, 1
  %26 = load i32, i32* %4, align 4
  %27 = mul i32 %25, %26
  %28 = sub i32 %23, %27
  store i32 %28, i32* %5, align 4
  %29 = load i32, i32* %5, align 4
  %30 = call i32 (i8*, ...) @printf(i8* getelementptr inbounds ([3 x i8], [3 x i8]* @.str.1, i64 0, i64 0), i32 %29)
  br label %31

31:                                               ; preds = %16, %11
  ret i32 0
}

declare dso_local i32 @__isoc99_scanf(i8*, ...) #1

declare dso_local i32 @printf(i8*, ...) #1

; Function Attrs: nounwind
declare dso_local double @pow(double, double) #2


!llvm.module.flags = !{!0}
!llvm.ident = !{!1}

!0 = !{i32 1, !"wchar_size", i32 4}
!1 = !{!"clang version 10.0.0-4ubuntu1 "}
